; Function Attrs: mustprogress uwtable
define noundef zeroext i1 @_ZN3net17QuicPacketCreator19AddPaddedSavedFrameERKNS_9QuicFrameE(ptr noundef nonnull align 8 dereferenceable(312) %0, ptr noundef nonnull align 8 dereferenceable(16) %1) local_unnamed_addr #0 align 2 {
  %3 = tail call noundef zeroext i1 @_ZN3net17QuicPacketCreator8AddFrameERKNS_9QuicFrameEb(ptr noundef nonnull align 8 dereferenceable(312) %0, ptr noundef nonnull align 8 dereferenceable(16) %1, i1 noundef zeroext true)
  br i1 %3, label %4, label %6

4:                                                ; preds = %2
  %5 = getelementptr inbounds nuw i8, ptr %0, i64 202
  store i16 -1, ptr %5, align 2, !tbaa !125
  br label %6

6:                                                ; preds = %2, %4
  ret i1 %3
}